Certificate:
    Data:
        Version: 3 (0x2)
        Serial Number:
            13:db:69:f2:53:ab:66:f6:5f:3e:da:ea:f8:f5:fa:b9:3c:13:99:94
        Signature Algorithm: sha256WithRSAEncryption
        Issuer: C=AU, ST=Some-State, O=Internet Widgits Pty Ltd, CN=localhost
        Validity
            Not Before: Jun  6 08:18:13 2019 GMT
            Not After : Jun 24 08:18:13 2087 GMT
        Subject: C=AU, ST=Some-State, O=Internet Widgits Pty Ltd, CN=localhost
        Subject Public Key Info:
            Public Key Algorithm: rsaEncryption
                RSA Public-Key: (1024 bit)
                Modulus:
                    00:b7:e5:0b:23:7d:d2:be:14:76:a0:bf:50:e6:45:
                    65:81:b8:38:b2:b9:53:d0:b5:35:e1:d2:a0:93:07:
                    44:cf:e3:14:a0:8f:4d:60:90:d6:18:05:c3:4e:f8:
                    65:a7:8a:ac:da:ec:ca:4f:89:aa:77:ad:93:55:74:
                    a3:78:e7:4e:9a:a9:c1:94:e3:bc:fd:bb:2f:1e:72:
                    91:e8:b2:cc:9e:b5:eb:0f:81:90:29:43:f3:f9:d8:
                    a7:0d:1d:9c:1e:3a:f2:a9:4d:a8:25:c7:a8:77:28:
                    1e:b9:52:a4:3b:88:b0:96:94:42:3b:78:0f:54:a2:
                    6a:7d:c3:2c:bf:00:9b:52:b3
                Exponent: 65537 (0x10001)
        X509v3 extensions:
            X509v3 Basic Constraints: 
                CA:FALSE
            Netscape Comment: 
                OpenSSL Generated Certificate
            X509v3 Subject Key Identifier: 
                1C:38:B3:C3:4A:7F:32:99:5B:E2:B6:C5:F7:B9:3F:99:8B:16:CA:E2
            X509v3 Authority Key Identifier: 
                DirName:/C=AU/ST=Some-State/O=Internet Widgits Pty Ltd/CN=localhost
                serial:1A:35:32:D3:54:E2:A3:75:33:82:31:64:0B:3D:AB:3B:DA:B3:66:BB

    Signature Algorithm: sha256WithRSAEncryption
         67:17:96:a4:ff:f8:34:f1:9c:0f:e8:00:d0:a7:c7:54:36:9b:
         ec:be:79:a3:86:03:76:9e:10:89:b7:95:31:ed:3f:91:0d:44:
         44:82:09:d6:2f:bc:fa:d2:0d:fe:c9:bc:32:4c:a2:1c:9d:2a:
         42:89:3b:c9:bc:8b:c4:04:a2:95:f0:09:27:7a:01:06:57:55:
         06:64:12:c6:aa:b1:15:62:2f:88:be:34:a2:3c:90:80:f7:60:
         44:60:00:9a:f5:34:ed:1c:65:15:7c:0d:ca:bf:65:c0:55:c9:
         ed:94:ce:9e:99:ef:73:1f:07:78:de:dc:c4:01:ae:31:e1:fa:
         81:8d
-----BEGIN CERTIFICATE-----
MIIDGTCCAoKgAwIBAgIUE9tp8lOrZvZfPtrq+PX6uTwTmZQwDQYJKoZIhvcNAQEL
BQAwWTELMAkGA1UEBhMCQVUxEzARBgNVBAgMClNvbWUtU3RhdGUxITAfBgNVBAoM
GEludGVybmV0IFdpZGdpdHMgUHR5IEx0ZDESMBAGA1UEAwwJbG9jYWxob3N0MCAX
DTE5MDYwNjA4MTgxM1oYDzIwODcwNjI0MDgxODEzWjBZMQswCQYDVQQGEwJBVTET
MBEGA1UECAwKU29tZS1TdGF0ZTEhMB8GA1UECgwYSW50ZXJuZXQgV2lkZ2l0cyBQ
dHkgTHRkMRIwEAYDVQQDDAlsb2NhbGhvc3QwgZ8wDQYJKoZIhvcNAQEBBQADgY0A
MIGJAoGBALflCyN90r4UdqC/UOZFZYG4OLK5U9C1NeHSoJMHRM/jFKCPTWCQ1hgF
w074ZaeKrNrsyk+Jqnetk1V0o3jnTpqpwZTjvP27Lx5ykeiyzJ616w+BkClD8/nY
pw0dnB468qlNqCXHqHcoHrlSpDuIsJaUQjt4D1Sian3DLL8Am1KzAgMBAAGjgdsw
gdgwCQYDVR0TBAIwADAsBglghkgBhvhCAQ0EHxYdT3BlblNTTCBHZW5lcmF0ZWQg
Q2VydGlmaWNhdGUwHQYDVR0OBBYEFBw4s8NKfzKZW+K2xfe5P5mLFsriMH4GA1Ud
IwR3MHWhXaRbMFkxCzAJBgNVBAYTAkFVMRMwEQYDVQQIDApTb21lLVN0YXRlMSEw
HwYDVQQKDBhJbnRlcm5ldCBXaWRnaXRzIFB0eSBMdGQxEjAQBgNVBAMMCWxvY2Fs
aG9zdIIUGjUy01Tio3UzgjFkCz2rO9qzZrswDQYJKoZIhvcNAQELBQADgYEAZxeW
pP/4NPGcD+gA0KfHVDab7L55o4YDdp4QibeVMe0/kQ1ERIIJ1i+8+tIN/sm8Mkyi
HJ0qQok7ybyLxASilfAJJ3oBBldVBmQSxqqxFWIviL40ojyQgPdgRGAAmvU07Rxl
FXwNyr9lwFXJ7ZTOnpnvcx8HeN7cxAGuMeH6gY0=
-----END CERTIFICATE-----
